; Function Attrs: mustprogress null_pointer_is_valid sspstrong uwtable
define void @_ZN19WiresharkMainWindow21editTimeShiftFinishedEi(ptr noundef align 8 dereferenceable_or_null(560) %0, i32 %1) #0 align 2 {
  %3 = getelementptr inbounds nuw i8, ptr %0, i64 40
  %4 = tail call noundef zeroext i1 @_ZNK11CaptureFile7isValidEv(ptr noundef nonnull align 8 dereferenceable_or_null(48) %3)
  br i1 %4, label %5, label %_ZNK11CaptureFile7capFileEv.exit

5:                                                ; preds = %2
  %6 = getelementptr inbounds nuw i8, ptr %0, i64 56
  %7 = load ptr, ptr %6, align 8
  br label %_ZNK11CaptureFile7capFileEv.exit

_ZNK11CaptureFile7capFileEv.exit:                 ; preds = %2, %5
  %8 = phi ptr [ %7, %5 ], [ null, %2 ]
  %9 = getelementptr inbounds nuw i8, ptr %8, i64 33
  %10 = load i8, ptr %9, align 1, !range !15, !noundef !16
  %11 = trunc nuw i8 %10 to i1
  br i1 %11, label %12, label %13

12:                                               ; preds = %_ZNK11CaptureFile7capFileEv.exit
  tail call void @_ZN10MainWindow23updateForUnsavedChangesEv(ptr noundef align 8 dereferenceable_or_null(360) %0)
  br label %13

13:                                               ; preds = %12, %_ZNK11CaptureFile7capFileEv.exit
  ret void
}